target datalayout = "e-m:e-p270:32:32-p271:32:32-p272:64:64-i64:64-i128:128-f80:128-n8:16:32:64-S128"
target triple = "x86_64-pc-linux-gnu"

%struct.lzma_next_coder_s = type { ptr, i64, i64, ptr, ptr, ptr, ptr, ptr, ptr, ptr }
%struct.lzma_simple_coder = type { %struct.lzma_next_coder_s, i8, i8, ptr, ptr, i32, i64, i64, i64, i64, [0 x i8] }
%struct.lzma_simple_x86 = type { i32, i32 }

; Function Attrs: nounwind uwtable
define internal i32 @x86_coder_init(ptr noundef %0, ptr noundef %1, ptr noundef %2, i1 noundef zeroext %3) #0 {
  %5 = alloca ptr, align 8
  %6 = alloca ptr, align 8
  %7 = alloca ptr, align 8
  %8 = alloca i8, align 1
  %9 = alloca i32, align 4
  %10 = alloca ptr, align 8
  %11 = alloca ptr, align 8
  store ptr %0, ptr %5, align 8, !tbaa !4
  store ptr %1, ptr %6, align 8, !tbaa !9
  store ptr %2, ptr %7, align 8, !tbaa !10
  %12 = zext i1 %3 to i8
  store i8 %12, ptr %8, align 1, !tbaa !12
  call void @llvm.lifetime.start.p0(i64 4, ptr %9) #3
  %13 = load ptr, ptr %5, align 8, !tbaa !4
  %14 = load ptr, ptr %6, align 8, !tbaa !9
  %15 = load ptr, ptr %7, align 8, !tbaa !10
  %16 = load i8, ptr %8, align 1, !tbaa !12, !range !14, !noundef !15
  %17 = trunc i8 %16 to i1
  %18 = call i32 @lzma_simple_coder_init(ptr noundef %13, ptr noundef %14, ptr noundef %15, ptr noundef @x86_code, i64 noundef 8, i64 noundef 5, i32 noundef 1, i1 noundef zeroext %17)
  store i32 %18, ptr %9, align 4, !tbaa !16
  %19 = load i32, ptr %9, align 4, !tbaa !16
  %20 = icmp eq i32 %19, 0
  br i1 %20, label %21, label %32

21:                                               ; preds = %4
  call void @llvm.lifetime.start.p0(i64 8, ptr %10) #3
  %22 = load ptr, ptr %5, align 8, !tbaa !4
  %23 = getelementptr inbounds nuw %struct.lzma_next_coder_s, ptr %22, i32 0, i32 0
  %24 = load ptr, ptr %23, align 8, !tbaa !18
  store ptr %24, ptr %10, align 8, !tbaa !9
  call void @llvm.lifetime.start.p0(i64 8, ptr %11) #3
  %25 = load ptr, ptr %10, align 8, !tbaa !9
  %26 = getelementptr inbounds nuw %struct.lzma_simple_coder, ptr %25, i32 0, i32 4
  %27 = load ptr, ptr %26, align 8, !tbaa !9
  store ptr %27, ptr %11, align 8, !tbaa !9
  %28 = load ptr, ptr %11, align 8, !tbaa !9
  %29 = getelementptr inbounds nuw %struct.lzma_simple_x86, ptr %28, i32 0, i32 0
  store i32 0, ptr %29, align 4, !tbaa !21
  %30 = load ptr, ptr %11, align 8, !tbaa !9
  %31 = getelementptr inbounds nuw %struct.lzma_simple_x86, ptr %30, i32 0, i32 1
  store i32 -5, ptr %31, align 4, !tbaa !23
  call void @llvm.lifetime.end.p0(i64 8, ptr %11) #3
  call void @llvm.lifetime.end.p0(i64 8, ptr %10) #3
  br label %32

32:                                               ; preds = %21, %4
  %33 = load i32, ptr %9, align 4, !tbaa !16
  call void @llvm.lifetime.end.p0(i64 4, ptr %9) #3
  ret i32 %33
}

; Function Attrs: nounwind uwtable
define dso_local i32 @lzma_simple_x86_encoder_init(ptr noundef %0, ptr noundef %1, ptr noundef %2) #0 {
  %4 = alloca ptr, align 8
  %5 = alloca ptr, align 8
  %6 = alloca ptr, align 8
  store ptr %0, ptr %4, align 8, !tbaa !4
  store ptr %1, ptr %5, align 8, !tbaa !9
  store ptr %2, ptr %6, align 8, !tbaa !10
  %7 = load ptr, ptr %4, align 8, !tbaa !4
  %8 = load ptr, ptr %5, align 8, !tbaa !9
  %9 = load ptr, ptr %6, align 8, !tbaa !10
  %10 = call i32 @x86_coder_init(ptr noundef %7, ptr noundef %8, ptr noundef %9, i1 noundef zeroext true)
  ret i32 %10
}